; Function Attrs: nofree nounwind uwtable
define void @Abc_NtkTransferPhases(ptr noundef captures(none) initializes((384, 392)) %0, ptr noundef readonly captures(none) %1) local_unnamed_addr #7 {
  %3 = getelementptr i8, ptr %0, i64 32
  %.val17 = load ptr, ptr %3, align 8
  %4 = getelementptr i8, ptr %.val17, i64 4
  %.val17.val = load i32, ptr %4, align 4
  %5 = tail call noalias dereferenceable_or_null(16) ptr @malloc(i64 noundef 16) #30
  %6 = add i32 %.val17.val, -1
  %or.cond.i.i = icmp ult i32 %6, 15
  %spec.store.select.i.i = select i1 %or.cond.i.i, i32 16, i32 %.val17.val
  %7 = getelementptr inbounds nuw i8, ptr %5, i64 4
  store i32 %spec.store.select.i.i, ptr %5, align 8
  %.not.i.i = icmp eq i32 %spec.store.select.i.i, 0
  br i1 %.not.i.i, label %Vec_IntAlloc.exit.thread.i, label %Vec_IntAlloc.exit.i

Vec_IntAlloc.exit.thread.i:                       ; preds = %2
  %8 = getelementptr inbounds nuw i8, ptr %5, i64 8
  store ptr null, ptr %8, align 8
  store i32 %.val17.val, ptr %7, align 4
  br label %Vec_IntStart.exit

Vec_IntAlloc.exit.i:                              ; preds = %2
  %9 = sext i32 %spec.store.select.i.i to i64
  %10 = shl nsw i64 %9, 2
  %11 = tail call noalias ptr @malloc(i64 noundef %10) #30
  %12 = getelementptr inbounds nuw i8, ptr %5, i64 8
  store ptr %11, ptr %12, align 8
  store i32 %.val17.val, ptr %7, align 4
  %.not.i = icmp eq ptr %11, null
  br i1 %.not.i, label %Vec_IntStart.exit, label %13

13:                                               ; preds = %Vec_IntAlloc.exit.i
  %14 = sext i32 %.val17.val to i64
  %15 = shl nsw i64 %14, 2
  tail call void @llvm.memset.p0.i64(ptr nonnull align 4 %11, i8 0, i64 %15, i1 false)
  br label %Vec_IntStart.exit

Vec_IntStart.exit:                                ; preds = %Vec_IntAlloc.exit.thread.i, %Vec_IntAlloc.exit.i, %13
  %16 = getelementptr inbounds nuw i8, ptr %0, i64 384
  store ptr %5, ptr %16, align 8
  %17 = getelementptr inbounds nuw i8, ptr %1, i64 32
  %18 = load ptr, ptr %17, align 8
  %19 = getelementptr i8, ptr %18, i64 4
  %.val23 = load i32, ptr %19, align 4
  %20 = icmp sgt i32 %.val23, 0
  br i1 %20, label %.lr.ph, label %.critedge

.lr.ph:                                           ; preds = %Vec_IntStart.exit
  %21 = getelementptr inbounds nuw i8, ptr %1, i64 384
  br label %22

22:                                               ; preds = %.lr.ph, %44
  %23 = phi ptr [ %18, %.lr.ph ], [ %45, %44 ]
  %indvars.iv = phi i64 [ 0, %.lr.ph ], [ %indvars.iv.next, %44 ]
  %24 = getelementptr i8, ptr %23, i64 8
  %.val16.val = load ptr, ptr %24, align 8
  %25 = getelementptr inbounds nuw ptr, ptr %.val16.val, i64 %indvars.iv
  %26 = load ptr, ptr %25, align 8
  %27 = icmp eq ptr %26, null
  br i1 %27, label %44, label %28

28:                                               ; preds = %22
  %29 = getelementptr inbounds nuw i8, ptr %26, i64 64
  %30 = load ptr, ptr %29, align 8
  %.not = icmp eq ptr %30, null
  br i1 %.not, label %44, label %31

31:                                               ; preds = %28
  %32 = getelementptr i8, ptr %30, i64 20
  %.val21 = load i32, ptr %32, align 4
  %33 = and i32 %.val21, 15
  %.not22 = icmp eq i32 %33, 0
  br i1 %.not22, label %44, label %34

34:                                               ; preds = %31
  %35 = load ptr, ptr %16, align 8
  %36 = getelementptr i8, ptr %30, i64 16
  %.val18 = load i32, ptr %36, align 8
  %37 = load ptr, ptr %21, align 8
  %38 = getelementptr i8, ptr %37, i64 8
  %.val19 = load ptr, ptr %38, align 8
  %39 = getelementptr inbounds nuw i32, ptr %.val19, i64 %indvars.iv
  %40 = load i32, ptr %39, align 4
  %41 = getelementptr i8, ptr %35, i64 8
  %.val20 = load ptr, ptr %41, align 8
  %42 = sext i32 %.val18 to i64
  %43 = getelementptr inbounds i32, ptr %.val20, i64 %42
  store i32 %40, ptr %43, align 4
  %.pre = load ptr, ptr %17, align 8
  br label %44

44:                                               ; preds = %22, %34, %31, %28
  %45 = phi ptr [ %23, %22 ], [ %.pre, %34 ], [ %23, %31 ], [ %23, %28 ]
  %indvars.iv.next = add nuw nsw i64 %indvars.iv, 1
  %46 = getelementptr i8, ptr %45, i64 4
  %.val = load i32, ptr %46, align 4
  %47 = sext i32 %.val to i64
  %48 = icmp slt i64 %indvars.iv.next, %47
  br i1 %48, label %22, label %.critedge, !llvm.loop !143

.critedge:                                        ; preds = %44, %Vec_IntStart.exit
  ret void
}